ccopy_reg
_reconstructor
p0
(cnltk.classify.decisiontree
DecisionTreeClassifier
p1
c__builtin__
object
p2
Ntp3
Rp4
(dp5
S'_fname'
p6
V:(
p7
sS'_label'
p8
S'negative'
p9
sS'_decisions'
p10
(dp11
Ng0
(g1
g2
Ntp12
Rp13
(dp14
g6
V:-(
p15
sg8
g9
sg10
(dp16
Ng0
(g1
g2
Ntp17
Rp18
(dp19
g6
V>:(
p20
sg8
g9
sg10
(dp21
Ng0
(g1
g2
Ntp22
Rp23
(dp24
g6
V>:-(
p25
sg8
g9
sg10
(dp26
Ng0
(g1
g2
Ntp27
Rp28
(dp29
g6
V@bumkeyyfel
p30
sg8
g9
sg10
(dp31
Ng0
(g1
g2
Ntp32
Rp33
(dp34
g6
Vmixtape
p35
sg8
g9
sg10
(dp36
Ng0
(g1
g2
Ntp37
Rp38
(dp39
g6
V(:
p40
sg8
g9
sg10
(dp41
Ng0
(g1
g2
Ntp42
Rp43
(dp44
g6
Vhttps://t.co/hfGyVJQ5RA
p45
sg8
g9
sg10
(dp46
Ng0
(g1
g2
Ntp47
Rp48
(dp49
g6
Vincompleta
p50
sg8
g9
sg10
(dp51
Ng0
(g1
g2
Ntp52
Rp53
(dp54
g6
VpOPPED
p55
sg8
g9
sg10
(dp56
Ng0
(g1
g2
Ntp57
Rp58
(dp59
g6
VHahah
p60
sg8
g9
sg10
(dp61
Ng0
(g1
g2
Ntp62
Rp63
(dp64
g6
V@iamglynnsmith
p65
sg8
g9
sg10
(dp66
Ng0
(g1
g2
Ntp67
Rp68
(dp69
g6
Vlaomma
p70
sg8
g9
sg10
(dp71
Ng0
(g1
g2
Ntp72
Rp73
(dp74
g6
Vmostest
p75
sg8
g9
sg10
(dp76
Ng0
(g1
g2
Ntp77
Rp78
(dp79
g6
VBianca
p80
sg8
g9
sg10
(dp81
Ng0
(g1
g2
Ntp82
Rp83
(dp84
g6
Vbiases
p85
sg8
g9
sg10
(dp86
Ng0
(g1
g2
Ntp87
Rp88
(dp89
g6
V@LBHCRM
p90
sg8
g9
sg10
(dp91
Ng0
(g1
g2
Ntp92
Rp93
(dp94
g6
Vjustget
p95
sg8
g9
sg10
(dp96
Ng0
(g1
g2
Ntp97
Rp98
(dp99
g6
Nsg8
S'positive'
p100
sg10
NsS'_default'
p101
NsbsI01
g0
(g1
g2
Ntp102
Rp103
(dp104
g6
Nsg8
g9
sg10
Nsg101
Nsbssg101
NsbsI01
g0
(g1
g2
Ntp105
Rp106
(dp107
g6
Nsg8
g9
sg10
Nsg101
Nsbssg101
NsbsI01
g0
(g1
g2
Ntp108
Rp109
(dp110
g6
Nsg8
g9
sg10
Nsg101
Nsbssg101
NsbsI01
g0
(g1
g2
Ntp111
Rp112
(dp113
g6
Nsg8
g9
sg10
Nsg101
Nsbssg101
NsbsI01
g0
(g1
g2
Ntp114
Rp115
(dp116
g6
Nsg8
g9
sg10
Nsg101
Nsbssg101
NsbsI01
g0
(g1
g2
Ntp117
Rp118
(dp119
g6
Nsg8
g9
sg10
Nsg101
Nsbssg101
NsbsI01
g0
(g1
g2
Ntp120
Rp121
(dp122
g6
Nsg8
g9
sg10
Nsg101
Nsbssg101
NsbsI01
g0
(g1
g2
Ntp123
Rp124
(dp125
g6
Nsg8
g9
sg10
Nsg101
Nsbssg101
NsbsI01
g0
(g1
g2
Ntp126
Rp127
(dp128
g6
Nsg8
g9
sg10
Nsg101
Nsbssg101
NsbsI01
g0
(g1
g2
Ntp129
Rp130
(dp131
g6
Nsg8
g9
sg10
Nsg101
Nsbssg101
NsbsI01
g0
(g1
g2
Ntp132
Rp133
(dp134
g6
Nsg8
g9
sg10
Nsg101
Nsbssg101
NsbsI01
g0
(g1
g2
Ntp135
Rp136
(dp137
g6
Vheart
p138
sg8
g9
sg10
(dp139
I01
g0
(g1
g2
Ntp140
Rp141
(dp142
g6
Nsg8
g100
sg10
Nsg101
NsbsNg0
(g1
g2
Ntp143
Rp144
(dp145
g6
Nsg8
g9
sg10
Nsg101
Nsbssg101
Nsbssg101
NsbsI01
g0
(g1
g2
Ntp146
Rp147
(dp148
g6
Nsg8
g9
sg10
Nsg101
Nsbssg101
NsbsI01
g0
(g1
g2
Ntp149
Rp150
(dp151
g6
Nsg8
g9
sg10
Nsg101
Nsbssg101
NsbsI01
g0
(g1
g2
Ntp152
Rp153
(dp154
g6
Nsg8
g9
sg10
Nsg101
Nsbssg101
NsbsI01
g0
(g1
g2
Ntp155
Rp156
(dp157
g6
Nsg8
g9
sg10
Nsg101
Nsbssg101
NsbsI01
g0
(g1
g2
Ntp158
Rp159
(dp160
g6
Nsg8
g9
sg10
Nsg101
Nsbssg101
NsbsI01
g0
(g1
g2
Ntp161
Rp162
(dp163
g6
Nsg8
g9
sg10
Nsg101
Nsbssg101
Nsb.